; Function Attrs: nofree norecurse nosync nounwind memory(readwrite, inaccessiblemem: none) uwtable
define internal void @jpeg_difference7(ptr noundef readonly captures(none) %0, i32 noundef %1, ptr noundef readonly captures(none) %2, ptr noundef readonly captures(none) %3, ptr noundef writeonly captures(none) initializes((0, 4)) %4, i32 noundef %5) #4 {
  %7 = getelementptr inbounds nuw i8, ptr %0, i64 488
  %8 = load ptr, ptr %7, align 8, !tbaa !34
  %9 = load i8, ptr %3, align 1, !tbaa !29
  %10 = zext i8 %9 to i32
  %11 = load i8, ptr %2, align 1, !tbaa !29
  %12 = zext i8 %11 to i32
  %13 = sub nsw i32 %12, %10
  store i32 %13, ptr %4, align 4, !tbaa !43
  %14 = add i32 %5, -1
  %.not28 = icmp eq i32 %14, 0
  br i1 %.not28, label %._crit_edge, label %.lr.ph

.lr.ph:                                           ; preds = %6, %.lr.ph
  %15 = phi i32 [ %23, %.lr.ph ], [ %14, %6 ]
  %.pn2632 = phi ptr [ %.0, %.lr.ph ], [ %2, %6 ]
  %.pn31 = phi ptr [ %.020, %.lr.ph ], [ %3, %6 ]
  %.02130 = phi i32 [ %18, %.lr.ph ], [ %12, %6 ]
  %.pn2729 = phi ptr [ %.022, %.lr.ph ], [ %4, %6 ]
  %.022 = getelementptr inbounds nuw i8, ptr %.pn2729, i64 4
  %.0 = getelementptr inbounds nuw i8, ptr %.pn2632, i64 1
  %.020 = getelementptr inbounds nuw i8, ptr %.pn31, i64 1
  %16 = load i8, ptr %.020, align 1, !tbaa !29
  %17 = load i8, ptr %.0, align 1, !tbaa !29
  %18 = zext i8 %17 to i32
  %19 = zext i8 %16 to i32
  %20 = add nuw nsw i32 %.02130, %19
  %21 = lshr i32 %20, 1
  %22 = sub nsw i32 %18, %21
  store i32 %22, ptr %.022, align 4, !tbaa !43
  %23 = add i32 %15, -1
  %.not = icmp eq i32 %23, 0
  br i1 %.not, label %._crit_edge, label %.lr.ph, !llvm.loop !56

._crit_edge:                                      ; preds = %.lr.ph, %6
  %24 = getelementptr inbounds nuw i8, ptr %0, i64 280
  %25 = load i32, ptr %24, align 8, !tbaa !40
  %.not25 = icmp eq i32 %25, 0
  br i1 %.not25, label %40, label %26

26:                                               ; preds = %._crit_edge
  %27 = getelementptr inbounds nuw i8, ptr %8, i64 104
  %28 = sext i32 %1 to i64
  %29 = getelementptr inbounds [10 x i32], ptr %27, i64 0, i64 %28
  %30 = load i32, ptr %29, align 4, !tbaa !43
  %31 = add i32 %30, -1
  store i32 %31, ptr %29, align 4, !tbaa !43
  %32 = icmp eq i32 %31, 0
  br i1 %32, label %33, label %40

33:                                               ; preds = %26
  %34 = load i32, ptr %24, align 8, !tbaa !40
  %35 = getelementptr inbounds nuw i8, ptr %0, i64 360
  %36 = load i32, ptr %35, align 8, !tbaa !41
  %37 = udiv i32 %34, %36
  store i32 %37, ptr %29, align 4, !tbaa !43
  %38 = getelementptr inbounds nuw i8, ptr %8, i64 24
  %39 = getelementptr inbounds [10 x ptr], ptr %38, i64 0, i64 %28
  store ptr @jpeg_difference_first_row, ptr %39, align 8, !tbaa !44
  br label %40

40:                                               ; preds = %26, %33, %._crit_edge
  ret void
}